; Function Attrs: mustprogress sspstrong uwtable
define void @_ZN3tbb6detail2r13rml14private_worker14release_handleEmb(i64 noundef %0, i1 noundef zeroext %1) local_unnamed_addr #0 align 2 {
  br i1 %1, label %3, label %6

3:                                                ; preds = %2
  %4 = tail call i32 @pthread_join(i64 noundef %0, ptr noundef null)
  %.not.i.i = icmp eq i32 %4, 0
  br i1 %.not.i.i, label %_ZN3tbb6detail2r13rml8internal14thread_monitor4joinEm.exit, label %5

5:                                                ; preds = %3
  tail call void @_ZN3tbb6detail2r113handle_perrorEiPKc(i32 noundef %4, ptr noundef nonnull @.str)
  br label %_ZN3tbb6detail2r13rml8internal14thread_monitor4joinEm.exit

6:                                                ; preds = %2
  %7 = tail call i32 @pthread_detach(i64 noundef %0) #10
  %.not.i.i3 = icmp eq i32 %7, 0
  br i1 %.not.i.i3, label %_ZN3tbb6detail2r13rml8internal14thread_monitor4joinEm.exit, label %8

8:                                                ; preds = %6
  tail call void @_ZN3tbb6detail2r113handle_perrorEiPKc(i32 noundef %7, ptr noundef nonnull @.str.1)
  br label %_ZN3tbb6detail2r13rml8internal14thread_monitor4joinEm.exit

_ZN3tbb6detail2r13rml8internal14thread_monitor4joinEm.exit: ; preds = %8, %6, %5, %3
  ret void
}